; Function Attrs: mustprogress uwtable
define internal noundef nonnull ptr @_ZN7testing8internal24ParameterizedTestFactoryIN12_GLOBAL__N_155EngineParamTest_SmallCorrectnessCheckDestAlignment_TestEE10CreateTestEv(ptr noundef nonnull align 8 dereferenceable(20) %this) unnamed_addr #3 align 2 personality ptr @__gxx_personality_v0 {
entry:
  %parameter_ = getelementptr inbounds i8, ptr %this, i64 8
  store ptr %parameter_, ptr @_ZN7testing18WithParamInterfaceIN12_GLOBAL__N_110TestParamsEE10parameter_E, align 8
  %call = tail call noalias noundef nonnull dereferenceable(336) ptr @_Znwm(i64 noundef 336) #28
  invoke fastcc void @_ZN12_GLOBAL__N_123EngineParamTestTemplateINS_10TestParamsEEC2Ev(ptr noundef nonnull align 8 dereferenceable(336) %call)
          to label %invoke.cont unwind label %lpad

invoke.cont:                                      ; preds = %entry
  store ptr getelementptr inbounds ({ [8 x ptr], [4 x ptr] }, ptr @_ZTVN12_GLOBAL__N_155EngineParamTest_SmallCorrectnessCheckDestAlignment_TestE, i64 0, i32 0, i64 2), ptr %call, align 8
  %add.ptr.i = getelementptr inbounds i8, ptr %call, i64 320
  store ptr getelementptr inbounds ({ [8 x ptr], [4 x ptr] }, ptr @_ZTVN12_GLOBAL__N_155EngineParamTest_SmallCorrectnessCheckDestAlignment_TestE, i64 0, i32 1, i64 2), ptr %add.ptr.i, align 8
  ret ptr %call

lpad:                                             ; preds = %entry
  %0 = landingpad { ptr, i32 }
          cleanup
  tail call void @_ZdlPv(ptr noundef nonnull %call) #30
  resume { ptr, i32 } %0
}